
LinearStepperSystem.elf:     file format elf32-avr

Sections:
Idx Name          Size      VMA       LMA       File off  Algn
  0 .text         00000158  00000000  00000000  00000054  2**1
                  CONTENTS, ALLOC, LOAD, READONLY, CODE
  1 .comment      00000030  00000000  00000000  000001ac  2**0
                  CONTENTS, READONLY
  2 .debug_aranges 00000020  00000000  00000000  000001dc  2**0
                  CONTENTS, READONLY, DEBUGGING
  3 .debug_info   0000013d  00000000  00000000  000001fc  2**0
                  CONTENTS, READONLY, DEBUGGING
  4 .debug_abbrev 000000c1  00000000  00000000  00000339  2**0
                  CONTENTS, READONLY, DEBUGGING
  5 .debug_line   000000bb  00000000  00000000  000003fa  2**0
                  CONTENTS, READONLY, DEBUGGING
  6 .debug_frame  00000034  00000000  00000000  000004b8  2**2
                  CONTENTS, READONLY, DEBUGGING
  7 .debug_str    00000180  00000000  00000000  000004ec  2**0
                  CONTENTS, READONLY, DEBUGGING
  8 .debug_loc    00000048  00000000  00000000  0000066c  2**0
                  CONTENTS, READONLY, DEBUGGING
  9 .debug_ranges 00000010  00000000  00000000  000006b4  2**0
                  CONTENTS, READONLY, DEBUGGING

Disassembly of section .text:

00000000 <__vectors>:
   0:	8e c0       	rjmp	.+284    	; 0x11e <__ctors_end>
   2:	9d c0       	rjmp	.+314    	; 0x13e <__bad_interrupt>
   4:	9c c0       	rjmp	.+312    	; 0x13e <__bad_interrupt>
   6:	9b c0       	rjmp	.+310    	; 0x13e <__bad_interrupt>
   8:	9a c0       	rjmp	.+308    	; 0x13e <__bad_interrupt>
   a:	99 c0       	rjmp	.+306    	; 0x13e <__bad_interrupt>
   c:	98 c0       	rjmp	.+304    	; 0x13e <__bad_interrupt>
   e:	97 c0       	rjmp	.+302    	; 0x13e <__bad_interrupt>
  10:	96 c0       	rjmp	.+300    	; 0x13e <__bad_interrupt>
  12:	95 c0       	rjmp	.+298    	; 0x13e <__bad_interrupt>
  14:	94 c0       	rjmp	.+296    	; 0x13e <__bad_interrupt>
  16:	93 c0       	rjmp	.+294    	; 0x13e <__bad_interrupt>
  18:	92 c0       	rjmp	.+292    	; 0x13e <__bad_interrupt>
  1a:	91 c0       	rjmp	.+290    	; 0x13e <__bad_interrupt>
  1c:	90 c0       	rjmp	.+288    	; 0x13e <__bad_interrupt>

0000001e <__trampolines_end>:
  1e:	01 03       	mulsu	r16, r17
  20:	07 0a       	sbc	r0, r23
  22:	0d 11       	cpse	r16, r13
  24:	14 17       	cp	r17, r20
  26:	1a 1c       	adc	r1, r10
  28:	1f 22       	and	r1, r31
  2a:	25 28       	or	r2, r5
  2c:	2a 2d       	mov	r18, r10
  2e:	2f 32       	cpi	r18, 0x2F	; 47
  30:	34 37       	cpi	r19, 0x74	; 116
  32:	39 3c       	cpi	r19, 0xC9	; 201
  34:	3e 40       	sbci	r19, 0x0E	; 14
  36:	43 45       	sbci	r20, 0x53	; 83
  38:	47 49       	sbci	r20, 0x97	; 151
  3a:	4b 4e       	sbci	r20, 0xEB	; 235
  3c:	50 52       	subi	r21, 0x20	; 32
  3e:	54 56       	subi	r21, 0x64	; 100
  40:	58 5a       	subi	r21, 0xA8	; 168
  42:	5c 5e       	subi	r21, 0xEC	; 236
  44:	60 62       	ori	r22, 0x20	; 32
  46:	64 66       	ori	r22, 0x64	; 100
  48:	67 69       	ori	r22, 0x97	; 151
  4a:	6b 6d       	ori	r22, 0xDB	; 219
  4c:	6f 70       	andi	r22, 0x0F	; 15
  4e:	72 74       	andi	r23, 0x42	; 66
  50:	76 77       	andi	r23, 0x76	; 118
  52:	79 7b       	andi	r23, 0xB9	; 185
  54:	7c 7e       	andi	r23, 0xEC	; 236
  56:	80 81       	ld	r24, Z
  58:	83 84       	ldd	r8, Z+11	; 0x0b
  5a:	86 87       	std	Z+14, r24	; 0x0e
  5c:	89 8a       	std	Y+17, r8	; 0x11
  5e:	8c 8d       	ldd	r24, Y+28	; 0x1c
  60:	8f 90       	pop	r8
  62:	92 93       	st	-Z, r25
  64:	94 96       	adiw	r26, 0x24	; 36
  66:	97 99       	sbic	0x12, 7	; 18
  68:	9a 9b       	sbis	0x13, 2	; 19
  6a:	9d 9e       	mul	r9, r29
  6c:	9f a0       	ldd	r9, Y+39	; 0x27
  6e:	a2 a3       	std	Z+34, r26	; 0x22
  70:	a4 a5       	ldd	r26, Z+44	; 0x2c
  72:	a7 a8       	ldd	r10, Z+55	; 0x37
  74:	a9 aa       	std	Y+49, r10	; 0x31
  76:	ab ad       	ldd	r26, Y+59	; 0x3b
  78:	ae af       	std	Y+62, r26	; 0x3e
  7a:	b0 b1       	in	r27, 0x00	; 0
  7c:	b2 b3       	in	r27, 0x12	; 18
  7e:	b4 b6       	in	r11, 0x34	; 52
  80:	b7 b8       	out	0x07, r11	; 7
  82:	b9 ba       	out	0x19, r11	; 25
  84:	bb bc       	out	0x2b, r11	; 43
  86:	bd be       	out	0x3d, r11	; 61
  88:	bf c0       	rjmp	.+382    	; 0x208 <__stack+0xa9>
  8a:	c1 c2       	rjmp	.+1410   	; 0x60e <__stack+0x4af>
  8c:	c3 c4       	rjmp	.+2438   	; 0xa14 <__stack+0x8b5>
  8e:	c5 c5       	rjmp	.+2954   	; 0xc1a <__stack+0xabb>
  90:	c6 c7       	rjmp	.+3980   	; 0x101e <__stack+0xebf>
  92:	c8 c9       	rjmp	.-3184   	; 0xfffff424 <__eeprom_end+0xff7ef424>
  94:	ca cb       	rjmp	.-2156   	; 0xfffff82a <__eeprom_end+0xff7ef82a>
  96:	cc cd       	rjmp	.-1128   	; 0xfffffc30 <__eeprom_end+0xff7efc30>
  98:	cd ce       	rjmp	.-614    	; 0xfffffe34 <__eeprom_end+0xff7efe34>
  9a:	cf d0       	rcall	.+414    	; 0x23a <__stack+0xdb>
  9c:	d1 d1       	rcall	.+930    	; 0x440 <__stack+0x2e1>
  9e:	d2 d3       	rcall	.+1956   	; 0x844 <__stack+0x6e5>
  a0:	d4 d5       	rcall	.+2984   	; 0xc4a <__stack+0xaeb>
  a2:	d5 d6       	rcall	.+3498   	; 0xe4e <__stack+0xcef>
  a4:	d7 d8       	rcall	.-3666   	; 0xfffff254 <__eeprom_end+0xff7ef254>
  a6:	d8 d9       	rcall	.-3152   	; 0xfffff458 <__eeprom_end+0xff7ef458>
  a8:	da da       	rcall	.-2636   	; 0xfffff65e <__eeprom_end+0xff7ef65e>
  aa:	db dc       	rcall	.-1610   	; 0xfffffa62 <__eeprom_end+0xff7efa62>
  ac:	dc dd       	rcall	.-1096   	; 0xfffffc66 <__eeprom_end+0xff7efc66>
  ae:	de de       	rcall	.-580    	; 0xfffffe6c <__eeprom_end+0xff7efe6c>
  b0:	df e0       	ldi	r29, 0x0F	; 15
  b2:	e0 e1       	ldi	r30, 0x10	; 16
  b4:	e2 e2       	ldi	r30, 0x22	; 34
  b6:	e3 e3       	ldi	r30, 0x33	; 51
  b8:	e4 e5       	ldi	r30, 0x54	; 84
  ba:	e5 e6       	ldi	r30, 0x65	; 101
  bc:	e6 e7       	ldi	r30, 0x76	; 118
  be:	e7 e8       	ldi	r30, 0x87	; 135
  c0:	e8 e9       	ldi	r30, 0x98	; 152
  c2:	e9 ea       	ldi	r30, 0xA9	; 169
  c4:	ea eb       	ldi	r30, 0xBA	; 186
  c6:	eb ec       	ldi	r30, 0xCB	; 203
  c8:	ec ed       	ldi	r30, 0xDC	; 220
  ca:	ed ee       	ldi	r30, 0xED	; 237
  cc:	ee ef       	ldi	r30, 0xFE	; 254
  ce:	ef f0       	brie	.+58     	; 0x10a <__SREG__+0xcb>
  d0:	f0 f0       	brcs	.+60     	; 0x10e <__SREG__+0xcf>
  d2:	f1 f1       	breq	.+124    	; 0x150 <main+0x10>
  d4:	f2 f2       	brmi	.-68     	; 0x92 <__SREG__+0x53>
  d6:	f2 f3       	brmi	.-4      	; 0xd4 <__SREG__+0x95>
  d8:	f3 f3       	brvs	.-4      	; 0xd6 <__SREG__+0x97>
  da:	f4 f4       	brge	.+60     	; 0x118 <__SREG__+0xd9>
  dc:	f5 f5       	brhc	.+124    	; 0x15a <_etext+0x2>
  de:	f5 f6       	brhc	.-68     	; 0x9c <__SREG__+0x5d>
  e0:	f6 f6       	brtc	.-68     	; 0x9e <__SREG__+0x5f>
  e2:	f7 f7       	brid	.-4      	; 0xe0 <__SREG__+0xa1>
  e4:	f7 f7       	brid	.-4      	; 0xe2 <__SREG__+0xa3>
  e6:	f8 f8       	.word	0xf8f8	; ????
  e8:	f8 f9       	.word	0xf9f8	; ????
  ea:	f9 f9       	.word	0xf9f9	; ????
  ec:	f9 fa       	.word	0xfaf9	; ????
  ee:	fa fa       	.word	0xfafa	; ????
  f0:	fa fb       	.word	0xfbfa	; ????
  f2:	fb fb       	.word	0xfbfb	; ????
  f4:	fb fb       	.word	0xfbfb	; ????
  f6:	fc fc       	.word	0xfcfc	; ????
  f8:	fc fc       	.word	0xfcfc	; ????
  fa:	fc fd       	.word	0xfdfc	; ????
  fc:	fd fd       	.word	0xfdfd	; ????
  fe:	fd fd       	.word	0xfdfd	; ????
 100:	fd fd       	.word	0xfdfd	; ????
 102:	fe fe       	.word	0xfefe	; ????
 104:	fe fe       	.word	0xfefe	; ????
 106:	fe fe       	.word	0xfefe	; ????
 108:	fe fe       	.word	0xfefe	; ????
 10a:	ff ff       	.word	0xffff	; ????
 10c:	ff ff       	.word	0xffff	; ????
 10e:	ff ff       	.word	0xffff	; ????
 110:	ff ff       	.word	0xffff	; ????
 112:	ff ff       	.word	0xffff	; ????
 114:	ff ff       	.word	0xffff	; ????
 116:	ff ff       	.word	0xffff	; ????
 118:	ff ff       	.word	0xffff	; ????
 11a:	ff ff       	.word	0xffff	; ????
 11c:	ff ff       	.word	0xffff	; ????

0000011e <__ctors_end>:
 11e:	11 24       	eor	r1, r1
 120:	1f be       	out	0x3f, r1	; 63
 122:	cf e5       	ldi	r28, 0x5F	; 95
 124:	d1 e0       	ldi	r29, 0x01	; 1
 126:	de bf       	out	0x3e, r29	; 62
 128:	cd bf       	out	0x3d, r28	; 61

0000012a <__do_clear_bss>:
 12a:	20 e0       	ldi	r18, 0x00	; 0
 12c:	a0 e6       	ldi	r26, 0x60	; 96
 12e:	b0 e0       	ldi	r27, 0x00	; 0
 130:	01 c0       	rjmp	.+2      	; 0x134 <.do_clear_bss_start>

00000132 <.do_clear_bss_loop>:
 132:	1d 92       	st	X+, r1

00000134 <.do_clear_bss_start>:
 134:	a0 36       	cpi	r26, 0x60	; 96
 136:	b2 07       	cpc	r27, r18
 138:	e1 f7       	brne	.-8      	; 0x132 <.do_clear_bss_loop>
 13a:	02 d0       	rcall	.+4      	; 0x140 <main>
 13c:	0b c0       	rjmp	.+22     	; 0x154 <_exit>

0000013e <__bad_interrupt>:
 13e:	60 cf       	rjmp	.-320    	; 0x0 <__vectors>

00000140 <main>:




int main(void)
{
 140:	cf 93       	push	r28
 142:	df 93       	push	r29
 144:	1f 92       	push	r1
 146:	cd b7       	in	r28, 0x3d	; 61
 148:	de b7       	in	r29, 0x3e	; 62
	// Initial setup
	
	// Set state machine to STOPPED state
	volatile State machine = STOPPED;
 14a:	19 82       	std	Y+1, r1	; 0x01
	
    while(1)
    {
        
		// TODO: 
		pgm_read_byte(&delayTable[0]);
 14c:	ee e1       	ldi	r30, 0x1E	; 30
 14e:	f0 e0       	ldi	r31, 0x00	; 0
 150:	84 91       	lpm	r24, Z
 152:	fe cf       	rjmp	.-4      	; 0x150 <main+0x10>

00000154 <_exit>:
 154:	f8 94       	cli

00000156 <__stop_program>:
 156:	ff cf       	rjmp	.-2      	; 0x156 <__stop_program>
